; Function Attrs: mustprogress uwtable
define void @_ZN15FilterIcpPlugin11applyFilterB5cxx11EPK7QActionRK17RichParameterListR12MeshDocumentRjPFbiPKcE(ptr dead_on_unwind noalias writable sret(%"class.std::map.54") align 8 %0, ptr noundef nonnull align 8 dereferenceable(204) %1, ptr noundef %2, ptr noundef nonnull align 8 dereferenceable(24) %3, ptr noundef nonnull align 8 dereferenceable(192) %4, ptr nocapture nonnull readnone align 4 %5, ptr nocapture readnone %6) unnamed_addr #9 align 2 personality ptr @__gxx_personality_v0 {
  %8 = getelementptr inbounds i8, ptr %1, i64 16
  %9 = load ptr, ptr %8, align 8
  %10 = getelementptr inbounds i8, ptr %9, i64 144
  %11 = load ptr, ptr %10, align 8
  %12 = tail call noundef i32 %11(ptr noundef nonnull align 8 dereferenceable(64) %8, ptr noundef %2)
  switch i32 %12, label %19 [
    i32 0, label %13
    i32 1, label %15
    i32 2, label %18
  ]

13:                                               ; preds = %7
  %14 = getelementptr inbounds i8, ptr %1, i64 80
  tail call void @_ZN23FilterIcpAlignParameter32RichParameterSetToAlignPairParamERK17RichParameterListRN3vcg9AlignPair5ParamE(ptr noundef nonnull align 8 dereferenceable(24) %3, ptr noundef nonnull align 8 dereferenceable(112) %14)
  tail call void @_ZN15FilterIcpPlugin17applyIcpTwoMeshesB5cxx11ER12MeshDocumentRK17RichParameterList(ptr dead_on_unwind writable sret(%"class.std::map.54") align 8 %0, ptr noundef nonnull align 8 dereferenceable(204) %1, ptr noundef nonnull align 8 dereferenceable(192) %4, ptr noundef nonnull align 8 dereferenceable(24) %3)
  br label %24

15:                                               ; preds = %7
  %16 = getelementptr inbounds i8, ptr %1, i64 80
  tail call void @_ZN23FilterIcpAlignParameter32RichParameterSetToAlignPairParamERK17RichParameterListRN3vcg9AlignPair5ParamE(ptr noundef nonnull align 8 dereferenceable(24) %3, ptr noundef nonnull align 8 dereferenceable(112) %16)
  %17 = getelementptr inbounds i8, ptr %1, i64 192
  tail call void @_ZN23FilterIcpAlignParameter31RichParameterSetToMeshTreeParamERK17RichParameterListRN3vcg8MeshTreeI9MeshModelfE5ParamE(ptr noundef nonnull align 8 dereferenceable(24) %3, ptr noundef nonnull align 4 dereferenceable(12) %17)
  tail call void @_ZN15FilterIcpPlugin15globalAlignmentB5cxx11ER12MeshDocumentRK17RichParameterList(ptr dead_on_unwind writable sret(%"class.std::map.54") align 8 %0, ptr noundef nonnull align 8 dereferenceable(204) %1, ptr noundef nonnull align 8 dereferenceable(192) %4, ptr noundef nonnull align 8 dereferenceable(24) %3)
  br label %24

18:                                               ; preds = %7
  tail call void @_ZN15FilterIcpPlugin22checkOverlappingMeshesB5cxx11ER12MeshDocumentRK17RichParameterList(ptr dead_on_unwind writable sret(%"class.std::map.54") align 8 %0, ptr noundef nonnull align 8 dereferenceable(204) %1, ptr noundef nonnull align 8 dereferenceable(192) %4, ptr noundef nonnull align 8 dereferenceable(24) %3)
  br label %24

19:                                               ; preds = %7
  tail call void @_ZN12FilterPlugin17wrongActionCalledEPK7QAction(ptr noundef %2)
  %20 = getelementptr inbounds i8, ptr %0, i64 8
  %21 = getelementptr inbounds i8, ptr %0, i64 24
  tail call void @llvm.memset.p0.i64(ptr noundef nonnull align 8 dereferenceable(24) %0, i8 0, i64 24, i1 false)
  store ptr %20, ptr %21, align 8
  %22 = getelementptr inbounds i8, ptr %0, i64 32
  store ptr %20, ptr %22, align 8
  %23 = getelementptr inbounds i8, ptr %0, i64 40
  store i64 0, ptr %23, align 8
  br label %24

24:                                               ; preds = %19, %18, %15, %13
  ret void
}